; Function Attrs: nounwind uwtable
define ptr @l_Lean_Meta_Grind_add___lambda__1___boxed(ptr noundef %0, ptr noundef %1, ptr noundef %2, ptr noundef %3, ptr noundef %4, ptr noundef %5, ptr noundef %6, ptr noundef %7, ptr noundef %8, ptr noundef %9, ptr noundef %10, ptr noundef %11, ptr noundef %12) local_unnamed_addr #1 {
  %14 = tail call ptr @l___private_Lean_Meta_Tactic_Grind_Core_0__Lean_Meta_Grind_resetNewFacts(ptr noundef %4, ptr poison, ptr poison, ptr poison, ptr poison, ptr poison, ptr poison, ptr poison, ptr noundef %12)
  %15 = getelementptr inbounds nuw i8, ptr %14, i64 16
  %16 = load ptr, ptr %15, align 8, !tbaa !11
  %17 = ptrtoint ptr %16 to i64
  %18 = and i64 %17, 1
  %.not.i15 = icmp eq i64 %18, 0
  br i1 %.not.i15, label %19, label %lean_inc.exit.i

19:                                               ; preds = %13
  %.val.i.i = load i32, ptr %16, align 4, !tbaa !8
  %20 = icmp sgt i32 %.val.i.i, 0
  br i1 %20, label %21, label %23, !prof !13

21:                                               ; preds = %19
  %22 = add nuw i32 %.val.i.i, 1
  store i32 %22, ptr %16, align 4, !tbaa !8
  br label %lean_inc.exit.i

23:                                               ; preds = %19
  %.not.i25.i = icmp eq i32 %.val.i.i, 0
  br i1 %.not.i25.i, label %lean_inc.exit.i, label %24

24:                                               ; preds = %23
  tail call void @lean_inc_ref_cold(ptr noundef nonnull %16) #5
  br label %lean_inc.exit.i

lean_inc.exit.i:                                  ; preds = %24, %23, %21, %13
  %25 = ptrtoint ptr %14 to i64
  %26 = and i64 %25, 1
  %.not26.i = icmp eq i64 %26, 0
  br i1 %.not26.i, label %27, label %l_Lean_Meta_Grind_add___lambda__1.exit

27:                                               ; preds = %lean_inc.exit.i
  %28 = load i32, ptr %14, align 4, !tbaa !8
  %29 = icmp sgt i32 %28, 1
  br i1 %29, label %30, label %32, !prof !13

30:                                               ; preds = %27
  %31 = add nsw i32 %28, -1
  store i32 %31, ptr %14, align 4, !tbaa !8
  br label %l_Lean_Meta_Grind_add___lambda__1.exit

32:                                               ; preds = %27
  %.not.i.i = icmp eq i32 %28, 0
  br i1 %.not.i.i, label %l_Lean_Meta_Grind_add___lambda__1.exit, label %33

33:                                               ; preds = %32
  tail call void @lean_dec_ref_cold(ptr noundef nonnull %14) #5
  br label %l_Lean_Meta_Grind_add___lambda__1.exit

l_Lean_Meta_Grind_add___lambda__1.exit:           ; preds = %lean_inc.exit.i, %30, %32, %33
  %34 = tail call ptr @l___private_Lean_Meta_Tactic_Grind_Core_0__Lean_Meta_Grind_addFactStep(ptr noundef %0, ptr noundef %1, ptr noundef %2, ptr noundef %4, ptr noundef %5, ptr noundef %6, ptr noundef %7, ptr noundef %8, ptr noundef %9, ptr noundef %10, ptr noundef %11, ptr noundef %16)
  %35 = ptrtoint ptr %3 to i64
  %36 = and i64 %35, 1
  %.not = icmp eq i64 %36, 0
  br i1 %.not, label %37, label %lean_dec.exit

37:                                               ; preds = %l_Lean_Meta_Grind_add___lambda__1.exit
  %38 = load i32, ptr %3, align 4, !tbaa !8
  %39 = icmp sgt i32 %38, 1
  br i1 %39, label %40, label %42, !prof !13

40:                                               ; preds = %37
  %41 = add nsw i32 %38, -1
  store i32 %41, ptr %3, align 4, !tbaa !8
  br label %lean_dec.exit

42:                                               ; preds = %37
  %.not.i = icmp eq i32 %38, 0
  br i1 %.not.i, label %lean_dec.exit, label %43

43:                                               ; preds = %42
  tail call void @lean_dec_ref_cold(ptr noundef nonnull %3) #5
  br label %lean_dec.exit

lean_dec.exit:                                    ; preds = %43, %42, %40, %l_Lean_Meta_Grind_add___lambda__1.exit
  ret ptr %34
}